target datalayout = "e-m:e-p270:32:32-p271:32:32-p272:64:64-i64:64-i128:128-f80:128-n8:16:32:64-S128"
target triple = "x86_64-pc-linux-gnu"

%struct.Curl_sockaddr_ex = type { i32, i32, i32, i32, %union.anon }
%union.anon = type { %struct.Curl_sockaddr_storage }
%struct.Curl_sockaddr_storage = type { %union.anon.0 }
%union.anon.0 = type { %struct.sockaddr_storage }
%struct.sockaddr_storage = type { i16, [118 x i8], i64 }
%struct.Curl_easy = type { i32, i64, i64, ptr, %struct.Curl_llist_node, %struct.Curl_llist_node, i32, i32, %struct.Curl_message, %struct.easy_pollset, %struct.Names, ptr, ptr, ptr, ptr, %struct.SingleRequest, %struct.UserDefined, ptr, ptr, ptr, %struct.Progress, %struct.UrlState, ptr, %struct.PureInfo, %struct.curl_tlssessioninfo }
%struct.Curl_llist_node = type { ptr, ptr, ptr, ptr }
%struct.Curl_message = type { %struct.Curl_llist_node, %struct.CURLMsg }
%struct.CURLMsg = type { i32, ptr, %union.anon.3 }
%union.anon.3 = type { ptr }
%struct.easy_pollset = type { [5 x i32], i32, [5 x i8] }
%struct.Names = type { ptr, i32 }
%struct.SingleRequest = type <{ i64, i64, i64, i64, %struct.curltime, i32, i32, i32, i32, i64, i32, i32, i8, i8, [2 x i8], i32, ptr, ptr, %struct.bufq, i64, i64, ptr, ptr, %union.anon.4, ptr, i8, i32, [3 x i8] }>
%struct.curltime = type { i64, i32 }
%struct.bufq = type { ptr, ptr, ptr, ptr, i64, i64, i64, i32 }
%union.anon.4 = type { ptr }
%struct.UserDefined = type <{ ptr, ptr, ptr, ptr, ptr, ptr, i64, i64, i64, ptr, ptr, i64, ptr, ptr, ptr, ptr, ptr, ptr, ptr, ptr, ptr, ptr, ptr, ptr, ptr, ptr, ptr, ptr, ptr, ptr, ptr, ptr, ptr, ptr, ptr, i64, i64, i64, i64, i64, i64, i64, i64, i64, ptr, ptr, %struct.curl_mimepart, ptr, ptr, ptr, i64, %struct.ssl_config_data, %struct.ssl_config_data, ptr, i16, i8, i8, %struct.ssl_general_config, i32, i32, i32, [4 x i8], ptr, ptr, i64, i32, i8, i8, i8, i8, ptr, ptr, ptr, i32, [4 x i8], [74 x ptr], [8 x ptr], i32, i32, i32, [4 x i8], ptr, i32, [4 x i8], ptr, ptr, ptr, ptr, ptr, i32, i32, i32, i32, i32, i32, i32, i32, i64, ptr, ptr, i64, ptr, i64, ptr, ptr, ptr, ptr, i32, i16, i16, i16, i8, i8, i8, i8, i8, i8, i8, i8, i64, [6 x i8] }>
%struct.curl_mimepart = type { ptr, ptr, i32, i32, ptr, ptr, ptr, ptr, ptr, ptr, ptr, ptr, ptr, ptr, ptr, i64, %struct.mime_state, ptr, %struct.mime_encoder_state, i64 }
%struct.mime_state = type { i32, ptr, i64 }
%struct.mime_encoder_state = type { i64, i64, i64, [256 x i8] }
%struct.ssl_config_data = type { %struct.ssl_primary_config, i64, ptr, ptr, ptr, ptr, ptr, ptr, ptr, i16 }
%struct.ssl_primary_config = type { ptr, ptr, ptr, ptr, ptr, ptr, ptr, ptr, ptr, ptr, ptr, ptr, ptr, ptr, i8, i32, i8, i8 }
%struct.ssl_general_config = type { i32 }
%struct.Progress = type { i64, %struct.pgrs_dir, %struct.pgrs_dir, i64, i64, i32, i32, i64, i64, i64, i64, i64, i64, i64, i64, i64, %struct.curltime, %struct.curltime, %struct.curltime, %struct.curltime, %struct.curltime, [6 x i64], [6 x %struct.curltime], i32, i8 }
%struct.pgrs_dir = type { i64, i64, i64, %struct.pgrs_measure }
%struct.pgrs_measure = type { %struct.curltime, i64 }
%struct.UrlState = type { %struct.curltime, i64, i64, %struct.dynbuf, ptr, i64, ptr, i32, i32, i32, ptr, i32, i64, i32, ptr, %struct.digestdata, %struct.digestdata, %struct.auth, %struct.auth, %struct.Curl_async, ptr, i8, %struct.curltime, %struct.Curl_tree, %struct.Curl_llist, [15 x %struct.time_node], ptr, ptr, i64, i64, i64, i64, [32 x i8], i64, ptr, ptr, ptr, %struct.urlpieces, ptr, ptr, ptr, ptr, ptr, i64, %struct.dynbuf, %struct.Curl_llist, [2 x %struct.curl_header], ptr, i32, ptr, ptr, %struct.store_netrc, %struct.dynamically_allocated_data, i8, i8, i8, i8, i32 }
%struct.digestdata = type { ptr, ptr, ptr, ptr, ptr, ptr, i32, i8, i8 }
%struct.auth = type { i64, i64, i64, i8 }
%struct.Curl_async = type { ptr, ptr, ptr, ptr, i32, i32, i8 }
%struct.Curl_tree = type { ptr, ptr, ptr, ptr, %struct.curltime, ptr }
%struct.time_node = type { %struct.Curl_llist_node, %struct.curltime, i32 }
%struct.urlpieces = type { ptr, ptr, ptr, ptr, ptr, ptr, ptr, ptr }
%struct.dynbuf = type { ptr, i64, i64, i64 }
%struct.Curl_llist = type { ptr, ptr, ptr, i64 }
%struct.curl_header = type { ptr, ptr, i64, i64, i32, ptr }
%struct.store_netrc = type { %struct.dynbuf, ptr, i8 }
%struct.dynamically_allocated_data = type { ptr, ptr, ptr, ptr, ptr, ptr, ptr, ptr, ptr, ptr, ptr, ptr, ptr, ptr }
%struct.PureInfo = type { i32, i32, i32, i64, i64, i64, i64, i64, i64, i64, ptr, ptr, i64, i32, %struct.ip_quadruple, i32, ptr, i32, %struct.curl_certinfo, i32, i8 }
%struct.ip_quadruple = type { [46 x i8], [46 x i8], i32, i32 }
%struct.curl_certinfo = type { i32, ptr }
%struct.curl_tlssessioninfo = type { i32, ptr }
%struct.connectdata = type { %struct.Curl_llist_node, ptr, ptr, i64, ptr, i64, ptr, ptr, %struct.hostname, ptr, ptr, %struct.hostname, %struct.proxy_info, %struct.proxy_info, %struct.ip_quadruple, %struct.ip_quadruple, ptr, ptr, ptr, ptr, ptr, %struct.curltime, %struct.curltime, %struct.curltime, [2 x i32], [2 x ptr], [2 x ptr], [2 x ptr], %struct.anon, %struct.easy_pollset, %struct.ssl_primary_config, %struct.ssl_primary_config, %struct.ConnectBits, ptr, ptr, %struct.curltime, i32, i32, %struct.Curl_llist, i32, i32, %struct.ntlmdata, %struct.ntlmdata, %union.anon.2, ptr, ptr, i16, i32, i32, i32, i32, i16, i16, i8, i8, i8, i8, i8, i8, i8 }
%struct.hostname = type { ptr, ptr, ptr, ptr }
%struct.proxy_info = type { %struct.hostname, i32, i8, ptr, ptr }
%struct.anon = type { [2 x %struct.curltime], i32 }
%struct.ConnectBits = type { i64 }
%struct.ntlmdata = type { i32, [8 x i8], i32, ptr }
%union.anon.2 = type { %struct.ftp_conn }
%struct.ftp_conn = type { %struct.pingpong, ptr, ptr, ptr, ptr, ptr, ptr, ptr, i8, i64, ptr, i64, i32, i32, i32, i32, i32, i16, i8, i8, i8, i8, i8 }
%struct.pingpong = type { i64, i8, ptr, i64, i64, %struct.curltime, i64, %struct.dynbuf, %struct.dynbuf, i64, i64, ptr, ptr }
%struct.Curl_cfilter = type { ptr, ptr, ptr, ptr, i32, i8 }
%struct.cf_socket_ctx = type { i32, %struct.Curl_sockaddr_ex, i32, %struct.ip_quadruple, %struct.curltime, %struct.curltime, %struct.curltime, i32, i8 }

; Function Attrs: nounwind uwtable
define internal void @cf_socket_update_data(ptr noundef %0, ptr noundef %1) #0 {
  %3 = alloca ptr, align 8
  %4 = alloca ptr, align 8
  %5 = alloca ptr, align 8
  store ptr %0, ptr %3, align 8, !tbaa !118
  store ptr %1, ptr %4, align 8, !tbaa !23
  %6 = load ptr, ptr %3, align 8, !tbaa !118
  %7 = getelementptr inbounds nuw %struct.Curl_cfilter, ptr %6, i32 0, i32 5
  %8 = load i8, ptr %7, align 4
  %9 = and i8 %8, 1
  %10 = zext i8 %9 to i32
  %11 = icmp ne i32 %10, 0
  br i1 %11, label %12, label %34

12:                                               ; preds = %2
  %13 = load ptr, ptr %3, align 8, !tbaa !118
  %14 = getelementptr inbounds nuw %struct.Curl_cfilter, ptr %13, i32 0, i32 4
  %15 = load i32, ptr %14, align 8, !tbaa !145
  %16 = icmp eq i32 %15, 0
  br i1 %16, label %17, label %34

17:                                               ; preds = %12
  call void @llvm.lifetime.start.p0(i64 8, ptr %5) #9
  %18 = load ptr, ptr %3, align 8, !tbaa !118
  %19 = getelementptr inbounds nuw %struct.Curl_cfilter, ptr %18, i32 0, i32 2
  %20 = load ptr, ptr %19, align 8, !tbaa !120
  store ptr %20, ptr %5, align 8, !tbaa !123
  %21 = load ptr, ptr %4, align 8, !tbaa !23
  %22 = getelementptr inbounds nuw %struct.Curl_easy, ptr %21, i32 0, i32 23
  %23 = getelementptr inbounds nuw %struct.PureInfo, ptr %22, i32 0, i32 14
  %24 = load ptr, ptr %5, align 8, !tbaa !123
  %25 = getelementptr inbounds nuw %struct.cf_socket_ctx, ptr %24, i32 0, i32 3
  call void @llvm.memcpy.p0.p0.i64(ptr align 4 %23, ptr align 4 %25, i64 100, i1 false), !tbaa.struct !159
  %26 = load ptr, ptr %3, align 8, !tbaa !118
  %27 = getelementptr inbounds nuw %struct.Curl_cfilter, ptr %26, i32 0, i32 3
  %28 = load ptr, ptr %27, align 8, !tbaa !139
  %29 = getelementptr inbounds nuw %struct.connectdata, ptr %28, i32 0, i32 48
  %30 = load i32, ptr %29, align 8, !tbaa !199
  %31 = load ptr, ptr %4, align 8, !tbaa !23
  %32 = getelementptr inbounds nuw %struct.Curl_easy, ptr %31, i32 0, i32 23
  %33 = getelementptr inbounds nuw %struct.PureInfo, ptr %32, i32 0, i32 15
  store i32 %30, ptr %33, align 8, !tbaa !200
  call void @llvm.lifetime.end.p0(i64 8, ptr %5) #9
  br label %34

34:                                               ; preds = %17, %12, %2
  ret void
}

; Function Attrs: nounwind uwtable
define internal void @cf_socket_active(ptr noundef %0, ptr noundef %1) #0 {
  %3 = alloca ptr, align 8
  %4 = alloca ptr, align 8
  %5 = alloca ptr, align 8
  store ptr %0, ptr %3, align 8, !tbaa !118
  store ptr %1, ptr %4, align 8, !tbaa !23
  call void @llvm.lifetime.start.p0(i64 8, ptr %5) #9
  %6 = load ptr, ptr %3, align 8, !tbaa !118
  %7 = getelementptr inbounds nuw %struct.Curl_cfilter, ptr %6, i32 0, i32 2
  %8 = load ptr, ptr %7, align 8, !tbaa !120
  store ptr %8, ptr %5, align 8, !tbaa !123
  %9 = load ptr, ptr %5, align 8, !tbaa !123
  %10 = getelementptr inbounds nuw %struct.cf_socket_ctx, ptr %9, i32 0, i32 2
  %11 = load i32, ptr %10, align 8, !tbaa !137
  %12 = load ptr, ptr %3, align 8, !tbaa !118
  %13 = getelementptr inbounds nuw %struct.Curl_cfilter, ptr %12, i32 0, i32 3
  %14 = load ptr, ptr %13, align 8, !tbaa !139
  %15 = getelementptr inbounds nuw %struct.connectdata, ptr %14, i32 0, i32 24
  %16 = load ptr, ptr %3, align 8, !tbaa !118
  %17 = getelementptr inbounds nuw %struct.Curl_cfilter, ptr %16, i32 0, i32 4
  %18 = load i32, ptr %17, align 8, !tbaa !145
  %19 = sext i32 %18 to i64
  %20 = getelementptr inbounds [2 x i32], ptr %15, i64 0, i64 %19
  store i32 %11, ptr %20, align 4, !tbaa !10
  %21 = load ptr, ptr %3, align 8, !tbaa !118
  %22 = load ptr, ptr %4, align 8, !tbaa !23
  %23 = call i32 @set_local_ip(ptr noundef %21, ptr noundef %22)
  %24 = load ptr, ptr %3, align 8, !tbaa !118
  %25 = getelementptr inbounds nuw %struct.Curl_cfilter, ptr %24, i32 0, i32 4
  %26 = load i32, ptr %25, align 8, !tbaa !145
  %27 = icmp eq i32 %26, 0
  br i1 %27, label %28, label %57

28:                                               ; preds = %2
  %29 = load ptr, ptr %3, align 8, !tbaa !118
  %30 = getelementptr inbounds nuw %struct.Curl_cfilter, ptr %29, i32 0, i32 3
  %31 = load ptr, ptr %30, align 8, !tbaa !139
  %32 = getelementptr inbounds nuw %struct.connectdata, ptr %31, i32 0, i32 14
  %33 = load ptr, ptr %5, align 8, !tbaa !123
  %34 = getelementptr inbounds nuw %struct.cf_socket_ctx, ptr %33, i32 0, i32 3
  call void @llvm.memcpy.p0.p0.i64(ptr align 8 %32, ptr align 4 %34, i64 100, i1 false), !tbaa.struct !159
  %35 = load ptr, ptr %5, align 8, !tbaa !123
  %36 = getelementptr inbounds nuw %struct.cf_socket_ctx, ptr %35, i32 0, i32 1
  %37 = load ptr, ptr %3, align 8, !tbaa !118
  %38 = getelementptr inbounds nuw %struct.Curl_cfilter, ptr %37, i32 0, i32 3
  %39 = load ptr, ptr %38, align 8, !tbaa !139
  %40 = getelementptr inbounds nuw %struct.connectdata, ptr %39, i32 0, i32 7
  store ptr %36, ptr %40, align 8, !tbaa !146
  %41 = load ptr, ptr %5, align 8, !tbaa !123
  %42 = getelementptr inbounds nuw %struct.cf_socket_ctx, ptr %41, i32 0, i32 1
  %43 = getelementptr inbounds nuw %struct.Curl_sockaddr_ex, ptr %42, i32 0, i32 0
  %44 = load i32, ptr %43, align 8, !tbaa !158
  %45 = icmp eq i32 %44, 10
  %46 = zext i1 %45 to i32
  %47 = load ptr, ptr %3, align 8, !tbaa !118
  %48 = getelementptr inbounds nuw %struct.Curl_cfilter, ptr %47, i32 0, i32 3
  %49 = load ptr, ptr %48, align 8, !tbaa !139
  %50 = getelementptr inbounds nuw %struct.connectdata, ptr %49, i32 0, i32 32
  %51 = zext i32 %46 to i64
  %52 = load i64, ptr %50, align 8
  %53 = and i64 %51, 1
  %54 = shl i64 %53, 11
  %55 = and i64 %52, -2049
  %56 = or i64 %55, %54
  store i64 %56, ptr %50, align 8
  br label %64

57:                                               ; preds = %2
  %58 = load ptr, ptr %3, align 8, !tbaa !118
  %59 = getelementptr inbounds nuw %struct.Curl_cfilter, ptr %58, i32 0, i32 3
  %60 = load ptr, ptr %59, align 8, !tbaa !139
  %61 = getelementptr inbounds nuw %struct.connectdata, ptr %60, i32 0, i32 15
  %62 = load ptr, ptr %5, align 8, !tbaa !123
  %63 = getelementptr inbounds nuw %struct.cf_socket_ctx, ptr %62, i32 0, i32 3
  call void @llvm.memcpy.p0.p0.i64(ptr align 4 %61, ptr align 4 %63, i64 100, i1 false), !tbaa.struct !159
  br label %64

64:                                               ; preds = %57, %28
  %65 = load ptr, ptr %5, align 8, !tbaa !123
  %66 = getelementptr inbounds nuw %struct.cf_socket_ctx, ptr %65, i32 0, i32 8
  %67 = load i8, ptr %66, align 4
  %68 = and i8 %67, -17
  %69 = or i8 %68, 16
  store i8 %69, ptr %66, align 4
  call void @llvm.lifetime.end.p0(i64 8, ptr %5) #9
  ret void
}

; Function Attrs: nounwind uwtable
define internal i32 @cf_socket_cntrl(ptr noundef %0, ptr noundef %1, i32 noundef %2, i32 noundef %3, ptr noundef %4) #0 {
  %6 = alloca ptr, align 8
  %7 = alloca ptr, align 8
  %8 = alloca i32, align 4
  %9 = alloca i32, align 4
  %10 = alloca ptr, align 8
  %11 = alloca ptr, align 8
  store ptr %0, ptr %6, align 8, !tbaa !118
  store ptr %1, ptr %7, align 8, !tbaa !23
  store i32 %2, ptr %8, align 4, !tbaa !10
  store i32 %3, ptr %9, align 4, !tbaa !10
  store ptr %4, ptr %10, align 8, !tbaa !117
  call void @llvm.lifetime.start.p0(i64 8, ptr %11) #9
  %12 = load ptr, ptr %6, align 8, !tbaa !118
  %13 = getelementptr inbounds nuw %struct.Curl_cfilter, ptr %12, i32 0, i32 2
  %14 = load ptr, ptr %13, align 8, !tbaa !120
  store ptr %14, ptr %11, align 8, !tbaa !123
  %15 = load i32, ptr %8, align 4, !tbaa !10
  switch i32 %15, label %27 [
    i32 256, label %16
    i32 4, label %21
    i32 257, label %24
  ]

16:                                               ; preds = %5
  %17 = load ptr, ptr %6, align 8, !tbaa !118
  %18 = load ptr, ptr %7, align 8, !tbaa !23
  call void @cf_socket_active(ptr noundef %17, ptr noundef %18)
  %19 = load ptr, ptr %6, align 8, !tbaa !118
  %20 = load ptr, ptr %7, align 8, !tbaa !23
  call void @cf_socket_update_data(ptr noundef %19, ptr noundef %20)
  br label %27

21:                                               ; preds = %5
  %22 = load ptr, ptr %6, align 8, !tbaa !118
  %23 = load ptr, ptr %7, align 8, !tbaa !23
  call void @cf_socket_update_data(ptr noundef %22, ptr noundef %23)
  br label %27

24:                                               ; preds = %5
  %25 = load ptr, ptr %11, align 8, !tbaa !123
  %26 = getelementptr inbounds nuw %struct.cf_socket_ctx, ptr %25, i32 0, i32 2
  store i32 -1, ptr %26, align 8, !tbaa !137
  br label %27

27:                                               ; preds = %5, %24, %21, %16
  call void @llvm.lifetime.end.p0(i64 8, ptr %11) #9
  ret i32 0
}