; Function Attrs: nounwind uwtable
define internal noundef i32 @cf_socket_cntrl(ptr noundef readonly captures(none) %0, ptr noundef %1, i32 noundef %2, i32 %3, ptr readnone captures(none) %4) #2 {
  switch i32 %2, label %cf_socket_update_data.exit [
    i32 256, label %6
    i32 4, label %53
    i32 257, label %71
  ]

6:                                                ; preds = %5
  %7 = getelementptr inbounds nuw i8, ptr %0, i64 16
  %8 = load ptr, ptr %7, align 8, !tbaa !104
  %9 = getelementptr inbounds nuw i8, ptr %8, i64 152
  %10 = load i32, ptr %9, align 8, !tbaa !116
  %11 = getelementptr inbounds nuw i8, ptr %0, i64 24
  %12 = load ptr, ptr %11, align 8, !tbaa !118
  %13 = getelementptr inbounds nuw i8, ptr %12, i64 568
  %14 = getelementptr inbounds nuw i8, ptr %0, i64 32
  %15 = load i32, ptr %14, align 8, !tbaa !126
  %16 = sext i32 %15 to i64
  %17 = getelementptr inbounds [2 x i32], ptr %13, i64 0, i64 %16
  store i32 %10, ptr %17, align 4, !tbaa !87
  tail call fastcc void @set_local_ip(ptr %8, ptr noundef %1)
  %18 = load i32, ptr %14, align 8, !tbaa !126
  %19 = icmp eq i32 %18, 0
  %20 = load ptr, ptr %11, align 8, !tbaa !118
  %21 = getelementptr inbounds nuw i8, ptr %8, i64 156
  br i1 %19, label %22, label %34

22:                                               ; preds = %6
  %23 = getelementptr inbounds nuw i8, ptr %20, i64 280
  tail call void @llvm.memcpy.p0.p0.i64(ptr noundef nonnull align 8 dereferenceable(100) %23, ptr noundef nonnull align 4 dereferenceable(100) %21, i64 100, i1 false), !tbaa.struct !131
  %24 = getelementptr inbounds nuw i8, ptr %8, i64 8
  %25 = load ptr, ptr %11, align 8, !tbaa !118
  %26 = getelementptr inbounds nuw i8, ptr %25, i64 80
  store ptr %24, ptr %26, align 8, !tbaa !127
  %27 = load i32, ptr %24, align 8, !tbaa !132
  %28 = icmp eq i32 %27, 10
  %29 = getelementptr inbounds nuw i8, ptr %25, i64 952
  %30 = load i64, ptr %29, align 8
  %31 = select i1 %28, i64 2048, i64 0
  %32 = and i64 %30, -2049
  %33 = or disjoint i64 %32, %31
  store i64 %33, ptr %29, align 8
  br label %cf_socket_active.exit

34:                                               ; preds = %6
  %35 = getelementptr inbounds nuw i8, ptr %20, i64 380
  tail call void @llvm.memcpy.p0.p0.i64(ptr noundef nonnull align 4 dereferenceable(100) %35, ptr noundef nonnull align 4 dereferenceable(100) %21, i64 100, i1 false), !tbaa.struct !131
  br label %cf_socket_active.exit

cf_socket_active.exit:                            ; preds = %22, %34
  %36 = getelementptr inbounds nuw i8, ptr %8, i64 308
  %37 = load i8, ptr %36, align 4
  %38 = or i8 %37, 16
  store i8 %38, ptr %36, align 4
  %39 = getelementptr inbounds nuw i8, ptr %0, i64 36
  %40 = load i8, ptr %39, align 4
  %41 = and i8 %40, 1
  %.not.i = icmp eq i8 %41, 0
  br i1 %.not.i, label %cf_socket_update_data.exit, label %42

42:                                               ; preds = %cf_socket_active.exit
  %43 = load i32, ptr %14, align 8, !tbaa !126
  %44 = icmp eq i32 %43, 0
  br i1 %44, label %45, label %cf_socket_update_data.exit

45:                                               ; preds = %42
  %46 = load ptr, ptr %7, align 8, !tbaa !104
  %47 = getelementptr inbounds nuw i8, ptr %1, i64 5148
  %48 = getelementptr inbounds nuw i8, ptr %46, i64 156
  tail call void @llvm.memcpy.p0.p0.i64(ptr noundef nonnull align 4 dereferenceable(100) %47, ptr noundef nonnull align 4 dereferenceable(100) %48, i64 100, i1 false), !tbaa.struct !131
  %49 = load ptr, ptr %11, align 8, !tbaa !118
  %50 = getelementptr inbounds nuw i8, ptr %49, i64 1392
  %51 = load i32, ptr %50, align 8, !tbaa !133
  %52 = getelementptr inbounds nuw i8, ptr %1, i64 5248
  store i32 %51, ptr %52, align 8, !tbaa !134
  br label %cf_socket_update_data.exit

53:                                               ; preds = %5
  %54 = getelementptr inbounds nuw i8, ptr %0, i64 36
  %55 = load i8, ptr %54, align 4
  %56 = and i8 %55, 1
  %.not.i8 = icmp eq i8 %56, 0
  br i1 %.not.i8, label %cf_socket_update_data.exit, label %57

57:                                               ; preds = %53
  %58 = getelementptr inbounds nuw i8, ptr %0, i64 32
  %59 = load i32, ptr %58, align 8, !tbaa !126
  %60 = icmp eq i32 %59, 0
  br i1 %60, label %61, label %cf_socket_update_data.exit

61:                                               ; preds = %57
  %62 = getelementptr inbounds nuw i8, ptr %0, i64 16
  %63 = load ptr, ptr %62, align 8, !tbaa !104
  %64 = getelementptr inbounds nuw i8, ptr %1, i64 5148
  %65 = getelementptr inbounds nuw i8, ptr %63, i64 156
  tail call void @llvm.memcpy.p0.p0.i64(ptr noundef nonnull align 4 dereferenceable(100) %64, ptr noundef nonnull align 4 dereferenceable(100) %65, i64 100, i1 false), !tbaa.struct !131
  %66 = getelementptr inbounds nuw i8, ptr %0, i64 24
  %67 = load ptr, ptr %66, align 8, !tbaa !118
  %68 = getelementptr inbounds nuw i8, ptr %67, i64 1392
  %69 = load i32, ptr %68, align 8, !tbaa !133
  %70 = getelementptr inbounds nuw i8, ptr %1, i64 5248
  store i32 %69, ptr %70, align 8, !tbaa !134
  br label %cf_socket_update_data.exit

71:                                               ; preds = %5
  %72 = getelementptr inbounds nuw i8, ptr %0, i64 16
  %73 = load ptr, ptr %72, align 8, !tbaa !104
  %74 = getelementptr inbounds nuw i8, ptr %73, i64 152
  store i32 -1, ptr %74, align 8, !tbaa !116
  br label %cf_socket_update_data.exit

cf_socket_update_data.exit:                       ; preds = %61, %57, %53, %45, %42, %cf_socket_active.exit, %71, %5
  ret i32 0
}